; Function Attrs: null_pointer_is_valid sspstrong uwtable
define internal i32 @dissect_ber_T_arbitrary(i1 noundef zeroext %0, ptr noundef %1, i32 noundef %2, ptr noundef %3, ptr noundef %4, i32 noundef %5) #0 {
  %7 = getelementptr inbounds nuw i8, ptr %3, i64 112
  %8 = load ptr, ptr %7, align 8
  %.not = icmp eq ptr %8, null
  br i1 %.not, label %11, label %9

9:                                                ; preds = %6
  %10 = tail call i32 %8(i1 noundef zeroext false, ptr noundef %1, i32 noundef %2, ptr noundef %3, ptr noundef %4, i32 noundef %5)
  br label %14

11:                                               ; preds = %6
  %12 = getelementptr inbounds nuw i8, ptr %3, i64 104
  %13 = tail call i32 @dissect_ber_constrained_bitstring(i1 noundef zeroext %0, ptr noundef %3, ptr noundef %4, ptr noundef %1, i32 noundef %2, i32 noundef -1, i32 noundef -1, ptr noundef null, i32 noundef 0, i32 noundef %5, i32 noundef -1, ptr noundef nonnull %12)
  br label %14

14:                                               ; preds = %11, %9
  %.0 = phi i32 [ %10, %9 ], [ %13, %11 ]
  ret i32 %.0
}